; Function Attrs: mustprogress nofree nounwind memory(write, argmem: readwrite) uwtable
define internal fastcc noundef range(i32 0, 2) i32 @_ZL14ShouldCompressPN13duckdb_brotli18BrotliTwoPassArenaEPKhmm(ptr noundef captures(none) %0, ptr noundef readonly captures(none) %1, i64 noundef %2, i64 noundef %3) unnamed_addr #3 {
  %5 = uitofp i64 %2 to double
  %6 = uitofp i64 %3 to double
  %7 = fmul double %5, 0x3FEF5C28F5C28F5C
  %8 = fcmp ogt double %7, %6
  br i1 %8, label %58, label %9

9:                                                ; preds = %4
  %10 = fmul double %5, 8.000000e+00
  %11 = fmul double %10, 0x3FEF5C28F5C28F5C
  %12 = fdiv double %11, 4.300000e+01
  tail call void @llvm.memset.p0.i64(ptr noundef nonnull align 4 dereferenceable(1024) %0, i8 0, i64 1024, i1 false)
  %.not = icmp eq i64 %2, 0
  br i1 %.not, label %.preheader.preheader, label %.lr.ph

.lr.ph:                                           ; preds = %9, %.lr.ph
  %.019 = phi i64 [ %19, %.lr.ph ], [ 0, %9 ]
  %13 = getelementptr inbounds nuw i8, ptr %1, i64 %.019
  %14 = load i8, ptr %13, align 1, !tbaa !7
  %15 = zext i8 %14 to i64
  %16 = getelementptr inbounds nuw [256 x i32], ptr %0, i64 0, i64 %15
  %17 = load i32, ptr %16, align 4, !tbaa !41
  %18 = add i32 %17, 1
  store i32 %18, ptr %16, align 4, !tbaa !41
  %19 = add i64 %.019, 43
  %20 = icmp ult i64 %19, %2
  br i1 %20, label %.lr.ph, label %.preheader.preheader, !llvm.loop !502

.preheader.preheader:                             ; preds = %.lr.ph, %9
  br label %.preheader

.preheader:                                       ; preds = %.preheader.preheader, %_ZN13duckdb_brotliL8FastLog2Em.exit
  %.1.idx.i22 = phi i64 [ %.add.i, %_ZN13duckdb_brotliL8FastLog2Em.exit ], [ 0, %.preheader.preheader ]
  %.124.i21 = phi double [ %44, %_ZN13duckdb_brotliL8FastLog2Em.exit ], [ 0.000000e+00, %.preheader.preheader ]
  %.126.i20 = phi i64 [ %35, %_ZN13duckdb_brotliL8FastLog2Em.exit ], [ 0, %.preheader.preheader ]
  %.1.ptr.i = getelementptr inbounds nuw i8, ptr %0, i64 %.1.idx.i22
  %21 = load i32, ptr %.1.ptr.i, align 4, !tbaa !41
  %22 = zext i32 %21 to i64
  %23 = icmp ult i32 %21, 256
  br i1 %23, label %24, label %27

24:                                               ; preds = %.preheader
  %25 = getelementptr inbounds nuw [256 x double], ptr @_ZN13duckdb_brotli16kBrotliLog2TableE, i64 0, i64 %22
  %26 = load double, ptr %25, align 8, !tbaa !503
  %.pre = uitofp nneg i32 %21 to double
  br label %_ZN13duckdb_brotliL8FastLog2Em.exit16

27:                                               ; preds = %.preheader
  %28 = uitofp i32 %21 to double
  %29 = tail call double @log2(double noundef %28) #10, !tbaa !41
  br label %_ZN13duckdb_brotliL8FastLog2Em.exit16

_ZN13duckdb_brotliL8FastLog2Em.exit16:            ; preds = %24, %27
  %.pre-phi = phi double [ %.pre, %24 ], [ %28, %27 ]
  %.0.i15 = phi double [ %26, %24 ], [ %29, %27 ]
  %30 = fneg double %.pre-phi
  %31 = tail call double @llvm.fmuladd.f64(double %30, double %.0.i15, double %.124.i21)
  %32 = add i64 %.126.i20, %22
  %.1.add.i = or disjoint i64 %.1.idx.i22, 4
  %.ptr.i = getelementptr inbounds nuw i8, ptr %0, i64 %.1.add.i
  %.add.i = add nuw nsw i64 %.1.idx.i22, 8
  %33 = load i32, ptr %.ptr.i, align 4, !tbaa !41
  %34 = zext i32 %33 to i64
  %35 = add i64 %32, %34
  %36 = uitofp i32 %33 to double
  %37 = icmp ult i32 %33, 256
  br i1 %37, label %38, label %41

38:                                               ; preds = %_ZN13duckdb_brotliL8FastLog2Em.exit16
  %39 = getelementptr inbounds nuw [256 x double], ptr @_ZN13duckdb_brotli16kBrotliLog2TableE, i64 0, i64 %34
  %40 = load double, ptr %39, align 8, !tbaa !503
  br label %_ZN13duckdb_brotliL8FastLog2Em.exit

41:                                               ; preds = %_ZN13duckdb_brotliL8FastLog2Em.exit16
  %42 = tail call double @log2(double noundef %36) #10, !tbaa !41
  br label %_ZN13duckdb_brotliL8FastLog2Em.exit

_ZN13duckdb_brotliL8FastLog2Em.exit:              ; preds = %38, %41
  %.0.i14 = phi double [ %40, %38 ], [ %42, %41 ]
  %43 = fneg double %36
  %44 = tail call double @llvm.fmuladd.f64(double %43, double %.0.i14, double %31)
  %45 = icmp samesign ult i64 %.1.idx.i22, 1016
  br i1 %45, label %.preheader, label %46, !llvm.loop !505

46:                                               ; preds = %_ZN13duckdb_brotliL8FastLog2Em.exit
  %.not.i = icmp eq i64 %35, 0
  %.pre24 = uitofp i64 %35 to double
  br i1 %.not.i, label %_ZN13duckdb_brotliL14ShannonEntropyEPKjmPm.exit, label %47

47:                                               ; preds = %46
  %48 = icmp ult i64 %35, 256
  br i1 %48, label %49, label %52

49:                                               ; preds = %47
  %50 = getelementptr inbounds nuw [256 x double], ptr @_ZN13duckdb_brotli16kBrotliLog2TableE, i64 0, i64 %35
  %51 = load double, ptr %50, align 8, !tbaa !503
  br label %_ZN13duckdb_brotliL8FastLog2Em.exit18

52:                                               ; preds = %47
  %53 = tail call double @log2(double noundef %.pre24) #10, !tbaa !41
  br label %_ZN13duckdb_brotliL8FastLog2Em.exit18

_ZN13duckdb_brotliL8FastLog2Em.exit18:            ; preds = %49, %52
  %.0.i17 = phi double [ %51, %49 ], [ %53, %52 ]
  %54 = tail call double @llvm.fmuladd.f64(double %.pre24, double %.0.i17, double %44)
  br label %_ZN13duckdb_brotliL14ShannonEntropyEPKjmPm.exit

_ZN13duckdb_brotliL14ShannonEntropyEPKjmPm.exit:  ; preds = %46, %_ZN13duckdb_brotliL8FastLog2Em.exit18
  %.2.i = phi double [ %54, %_ZN13duckdb_brotliL8FastLog2Em.exit18 ], [ %44, %46 ]
  %55 = fcmp olt double %.2.i, %.pre24
  %.0.i = select i1 %55, double %.pre24, double %.2.i
  %56 = fcmp olt double %.0.i, %12
  %57 = zext i1 %56 to i32
  br label %58

58:                                               ; preds = %4, %_ZN13duckdb_brotliL14ShannonEntropyEPKjmPm.exit
  %.013 = phi i32 [ %57, %_ZN13duckdb_brotliL14ShannonEntropyEPKjmPm.exit ], [ 1, %4 ]
  ret i32 %.013
}